target datalayout = "e-m:e-p270:32:32-p271:32:32-p272:64:64-i64:64-i128:128-f80:128-n8:16:32:64-S128"
target triple = "x86_64-pc-linux-gnu"

%struct.tmpi_req_ = type { i32, ptr, ptr, ptr, i32, i32, i64, i32, ptr, ptr }
%struct.tmpi_status_ = type { i32, i32, i32, i64, i32 }

; Function Attrs: mustprogress uwtable
define void @_Z15tMPI_Set_statusP9tmpi_req_P12tmpi_status_(ptr noundef %0, ptr noundef %1) #0 {
  %3 = alloca ptr, align 8
  %4 = alloca ptr, align 8
  store ptr %0, ptr %3, align 8, !tbaa !51
  store ptr %1, ptr %4, align 8, !tbaa !64
  %5 = load ptr, ptr %4, align 8, !tbaa !64
  %6 = icmp ne ptr %5, null
  br i1 %6, label %7, label %37

7:                                                ; preds = %2
  %8 = load ptr, ptr %3, align 8, !tbaa !51
  %9 = getelementptr inbounds nuw %struct.tmpi_req_, ptr %8, i32 0, i32 3
  %10 = load ptr, ptr %9, align 8, !tbaa !59
  %11 = load ptr, ptr %3, align 8, !tbaa !51
  %12 = getelementptr inbounds nuw %struct.tmpi_req_, ptr %11, i32 0, i32 2
  %13 = load ptr, ptr %12, align 8, !tbaa !57
  %14 = call noundef i32 @_Z19tMPI_Comm_seek_rankP10tmpi_comm_P11tmpi_thread(ptr noundef %10, ptr noundef %13)
  %15 = load ptr, ptr %4, align 8, !tbaa !64
  %16 = getelementptr inbounds nuw %struct.tmpi_status_, ptr %15, i32 0, i32 0
  store i32 %14, ptr %16, align 8, !tbaa !66
  %17 = load ptr, ptr %3, align 8, !tbaa !51
  %18 = getelementptr inbounds nuw %struct.tmpi_req_, ptr %17, i32 0, i32 4
  %19 = load i32, ptr %18, align 8, !tbaa !60
  %20 = load ptr, ptr %4, align 8, !tbaa !64
  %21 = getelementptr inbounds nuw %struct.tmpi_status_, ptr %20, i32 0, i32 1
  store i32 %19, ptr %21, align 4, !tbaa !68
  %22 = load ptr, ptr %3, align 8, !tbaa !51
  %23 = getelementptr inbounds nuw %struct.tmpi_req_, ptr %22, i32 0, i32 5
  %24 = load i32, ptr %23, align 4, !tbaa !61
  %25 = load ptr, ptr %4, align 8, !tbaa !64
  %26 = getelementptr inbounds nuw %struct.tmpi_status_, ptr %25, i32 0, i32 2
  store i32 %24, ptr %26, align 8, !tbaa !69
  %27 = load ptr, ptr %3, align 8, !tbaa !51
  %28 = getelementptr inbounds nuw %struct.tmpi_req_, ptr %27, i32 0, i32 6
  %29 = load i64, ptr %28, align 8, !tbaa !62
  %30 = load ptr, ptr %4, align 8, !tbaa !64
  %31 = getelementptr inbounds nuw %struct.tmpi_status_, ptr %30, i32 0, i32 3
  store i64 %29, ptr %31, align 8, !tbaa !70
  %32 = load ptr, ptr %3, align 8, !tbaa !51
  %33 = getelementptr inbounds nuw %struct.tmpi_req_, ptr %32, i32 0, i32 7
  %34 = load i32, ptr %33, align 8, !tbaa !63
  %35 = load ptr, ptr %4, align 8, !tbaa !64
  %36 = getelementptr inbounds nuw %struct.tmpi_status_, ptr %35, i32 0, i32 4
  store i32 %34, ptr %36, align 8, !tbaa !71
  br label %37

37:                                               ; preds = %7, %2
  ret void
}