; Function Attrs: mustprogress uwtable
define void @_Z15tMPI_Set_statusP9tmpi_req_P12tmpi_status_(ptr noundef readonly captures(none) %0, ptr noundef writeonly %1) local_unnamed_addr #0 {
  %.not = icmp eq ptr %1, null
  br i1 %.not, label %21, label %3

3:                                                ; preds = %2
  %4 = getelementptr inbounds nuw i8, ptr %0, i64 24
  %5 = load ptr, ptr %4, align 8, !tbaa !50
  %6 = getelementptr inbounds nuw i8, ptr %0, i64 16
  %7 = load ptr, ptr %6, align 8, !tbaa !48
  %8 = tail call noundef i32 @_Z19tMPI_Comm_seek_rankP10tmpi_comm_P11tmpi_thread(ptr noundef %5, ptr noundef %7)
  store i32 %8, ptr %1, align 8, !tbaa !52
  %9 = getelementptr inbounds nuw i8, ptr %0, i64 32
  %10 = load i32, ptr %9, align 8, !tbaa !51
  %11 = getelementptr inbounds nuw i8, ptr %1, i64 4
  store i32 %10, ptr %11, align 4, !tbaa !54
  %12 = getelementptr inbounds nuw i8, ptr %0, i64 36
  %13 = load i32, ptr %12, align 4, !tbaa !55
  %14 = getelementptr inbounds nuw i8, ptr %1, i64 8
  store i32 %13, ptr %14, align 8, !tbaa !56
  %15 = getelementptr inbounds nuw i8, ptr %0, i64 40
  %16 = load i64, ptr %15, align 8, !tbaa !57
  %17 = getelementptr inbounds nuw i8, ptr %1, i64 16
  store i64 %16, ptr %17, align 8, !tbaa !58
  %18 = getelementptr inbounds nuw i8, ptr %0, i64 48
  %19 = load i32, ptr %18, align 8, !tbaa !59
  %20 = getelementptr inbounds nuw i8, ptr %1, i64 24
  store i32 %19, ptr %20, align 8, !tbaa !60
  br label %21

21:                                               ; preds = %3, %2
  ret void
}